target datalayout = "e-m:e-p270:32:32-p271:32:32-p272:64:64-i64:64-i128:128-f80:128-n8:16:32:64-S128"
target triple = "x86_64-pc-linux-gnu"

%struct.llhttp__internal_s = type { i32, ptr, ptr, i32, ptr, ptr, ptr, ptr, i64, i8, i8, i8, i8, i8, i16, i8, i8, i16, i16, i8, ptr }
%struct.llparse_match_s = type { i32, ptr }

; Function Attrs: nounwind uwtable
define internal { i32, ptr } @llparse__match_sequence_id(ptr noundef %0, ptr noundef %1, ptr noundef %2, ptr noundef %3, i32 noundef %4) #0 {
  %6 = alloca %struct.llparse_match_s, align 8
  %7 = alloca ptr, align 8
  %8 = alloca ptr, align 8
  %9 = alloca ptr, align 8
  %10 = alloca ptr, align 8
  %11 = alloca i32, align 4
  %12 = alloca i32, align 4
  %13 = alloca i8, align 1
  %14 = alloca i32, align 4
  store ptr %0, ptr %7, align 8, !tbaa !3
  store ptr %1, ptr %8, align 8, !tbaa !8
  store ptr %2, ptr %9, align 8, !tbaa !8
  store ptr %3, ptr %10, align 8, !tbaa !8
  store i32 %4, ptr %11, align 4, !tbaa !17
  call void @llvm.lifetime.start.p0(i64 4, ptr %12) #6
  %15 = load ptr, ptr %7, align 8, !tbaa !3
  %16 = getelementptr inbounds nuw %struct.llhttp__internal_s, ptr %15, i32 0, i32 0
  %17 = load i32, ptr %16, align 8, !tbaa !39
  store i32 %17, ptr %12, align 4, !tbaa !17
  br label %18

18:                                               ; preds = %48, %5
  %19 = load ptr, ptr %8, align 8, !tbaa !8
  %20 = load ptr, ptr %9, align 8, !tbaa !8
  %21 = icmp ne ptr %19, %20
  br i1 %21, label %22, label %51

22:                                               ; preds = %18
  call void @llvm.lifetime.start.p0(i64 1, ptr %13) #6
  %23 = load ptr, ptr %8, align 8, !tbaa !8
  %24 = load i8, ptr %23, align 1, !tbaa !32
  store i8 %24, ptr %13, align 1, !tbaa !32
  %25 = load i8, ptr %13, align 1, !tbaa !32
  %26 = zext i8 %25 to i32
  %27 = load ptr, ptr %10, align 8, !tbaa !8
  %28 = load i32, ptr %12, align 4, !tbaa !17
  %29 = zext i32 %28 to i64
  %30 = getelementptr inbounds nuw i8, ptr %27, i64 %29
  %31 = load i8, ptr %30, align 1, !tbaa !32
  %32 = zext i8 %31 to i32
  %33 = icmp eq i32 %26, %32
  br i1 %33, label %34, label %42

34:                                               ; preds = %22
  %35 = load i32, ptr %12, align 4, !tbaa !17
  %36 = add i32 %35, 1
  store i32 %36, ptr %12, align 4, !tbaa !17
  %37 = load i32, ptr %11, align 4, !tbaa !17
  %38 = icmp eq i32 %36, %37
  br i1 %38, label %39, label %41

39:                                               ; preds = %34
  %40 = getelementptr inbounds nuw %struct.llparse_match_s, ptr %6, i32 0, i32 0
  store i32 0, ptr %40, align 8, !tbaa !38
  store i32 5, ptr %14, align 4
  br label %45

41:                                               ; preds = %34
  br label %44

42:                                               ; preds = %22
  %43 = getelementptr inbounds nuw %struct.llparse_match_s, ptr %6, i32 0, i32 0
  store i32 2, ptr %43, align 8, !tbaa !38
  store i32 5, ptr %14, align 4
  br label %45

44:                                               ; preds = %41
  store i32 0, ptr %14, align 4
  br label %45

45:                                               ; preds = %42, %39, %44
  call void @llvm.lifetime.end.p0(i64 1, ptr %13) #6
  %46 = load i32, ptr %14, align 4
  switch i32 %46, label %63 [
    i32 0, label %47
    i32 5, label %58
  ]

47:                                               ; preds = %45
  br label %48

48:                                               ; preds = %47
  %49 = load ptr, ptr %8, align 8, !tbaa !8
  %50 = getelementptr inbounds nuw i8, ptr %49, i32 1
  store ptr %50, ptr %8, align 8, !tbaa !8
  br label %18, !llvm.loop !43

51:                                               ; preds = %18
  %52 = load i32, ptr %12, align 4, !tbaa !17
  %53 = load ptr, ptr %7, align 8, !tbaa !3
  %54 = getelementptr inbounds nuw %struct.llhttp__internal_s, ptr %53, i32 0, i32 0
  store i32 %52, ptr %54, align 8, !tbaa !39
  %55 = getelementptr inbounds nuw %struct.llparse_match_s, ptr %6, i32 0, i32 0
  store i32 1, ptr %55, align 8, !tbaa !38
  %56 = load ptr, ptr %8, align 8, !tbaa !8
  %57 = getelementptr inbounds nuw %struct.llparse_match_s, ptr %6, i32 0, i32 1
  store ptr %56, ptr %57, align 8, !tbaa !36
  store i32 1, ptr %14, align 4
  br label %63

58:                                               ; preds = %45
  %59 = load ptr, ptr %7, align 8, !tbaa !3
  %60 = getelementptr inbounds nuw %struct.llhttp__internal_s, ptr %59, i32 0, i32 0
  store i32 0, ptr %60, align 8, !tbaa !39
  %61 = load ptr, ptr %8, align 8, !tbaa !8
  %62 = getelementptr inbounds nuw %struct.llparse_match_s, ptr %6, i32 0, i32 1
  store ptr %61, ptr %62, align 8, !tbaa !36
  store i32 1, ptr %14, align 4
  br label %63

63:                                               ; preds = %58, %51, %45
  call void @llvm.lifetime.end.p0(i64 4, ptr %12) #6
  %64 = load { i32, ptr }, ptr %6, align 8
  ret { i32, ptr } %64
}