; Function Attrs: nofree norecurse nosync nounwind memory(argmem: readwrite) uwtable
define internal fastcc { i32, ptr } @llparse__match_sequence_id(ptr noundef captures(none) %0, ptr noundef %1, ptr noundef readnone %2, ptr noundef readonly captures(none) %3, i32 noundef range(i32 2, 11) %4) unnamed_addr #7 {
  %6 = load i32, ptr %0, align 8, !tbaa !30
  %.not25 = icmp eq ptr %1, %2
  br i1 %.not25, label %.loopexit.sink.split, label %.lr.ph.preheader

.lr.ph.preheader:                                 ; preds = %5
  %7 = ptrtoint ptr %2 to i64
  %8 = ptrtoint ptr %1 to i64
  %9 = sub i64 %7, %8
  %scevgep = getelementptr i8, ptr %1, i64 %9
  br label %.lr.ph

.lr.ph:                                           ; preds = %.lr.ph.preheader, %17
  %.01528 = phi i32 [ %.1, %17 ], [ %6, %.lr.ph.preheader ]
  %.sroa.0.027 = phi i32 [ %.sroa.0.1, %17 ], [ undef, %.lr.ph.preheader ]
  %.01626 = phi ptr [ %18, %17 ], [ %1, %.lr.ph.preheader ]
  %10 = load i8, ptr %.01626, align 1, !tbaa !28
  %11 = zext i32 %.01528 to i64
  %12 = getelementptr inbounds nuw i8, ptr %3, i64 %11
  %13 = load i8, ptr %12, align 1, !tbaa !28
  %14 = icmp eq i8 %10, %13
  %15 = add i32 %.01528, 1
  %16 = icmp eq i32 %15, %4
  %..sroa.0.0 = select i1 %16, i32 0, i32 %.sroa.0.027
  %. = select i1 %16, i32 5, i32 0
  %.sroa.0.1 = select i1 %14, i32 %..sroa.0.0, i32 2
  %.0 = select i1 %14, i32 %., i32 5
  switch i32 %.0, label %.loopexit [
    i32 0, label %17
    i32 5, label %.loopexit.sink.split
  ]

17:                                               ; preds = %.lr.ph
  %.1 = select i1 %14, i32 %15, i32 %.01528
  %18 = getelementptr inbounds nuw i8, ptr %.01626, i64 1
  %.not = icmp eq ptr %18, %2
  br i1 %.not, label %.loopexit.sink.split, label %.lr.ph, !llvm.loop !34

.loopexit.sink.split:                             ; preds = %.lr.ph, %17, %5
  %.sink = phi i32 [ %6, %5 ], [ %.1, %17 ], [ 0, %.lr.ph ]
  %.01623.ph = phi ptr [ %1, %5 ], [ %scevgep, %17 ], [ %.01626, %.lr.ph ]
  %.sroa.0.2.ph = phi i32 [ 1, %5 ], [ 1, %17 ], [ %.sroa.0.1, %.lr.ph ]
  store i32 %.sink, ptr %0, align 8, !tbaa !30
  br label %.loopexit

.loopexit:                                        ; preds = %.lr.ph, %.loopexit.sink.split
  %.01623 = phi ptr [ %.01623.ph, %.loopexit.sink.split ], [ %.01626, %.lr.ph ]
  %.sroa.0.2 = phi i32 [ %.sroa.0.2.ph, %.loopexit.sink.split ], [ %.sroa.0.1, %.lr.ph ]
  %.fca.0.insert = insertvalue { i32, ptr } poison, i32 %.sroa.0.2, 0
  %.fca.1.insert = insertvalue { i32, ptr } %.fca.0.insert, ptr %.01623, 1
  ret { i32, ptr } %.fca.1.insert
}